target datalayout = "e-m:e-p270:32:32-p271:32:32-p272:64:64-i64:64-i128:128-f80:128-n8:16:32:64-S128"
target triple = "x86_64-pc-linux-gnu"

%struct.OSQPVectorf_ = type { ptr, i64 }

; Function Attrs: nounwind uwtable
define void @OSQPVectorf_ew_sqrt(ptr noundef %0) #0 {
  %2 = alloca ptr, align 8
  %3 = alloca i64, align 8
  %4 = alloca i64, align 8
  %5 = alloca ptr, align 8
  store ptr %0, ptr %2, align 8
  %6 = load ptr, ptr %2, align 8
  %7 = getelementptr inbounds %struct.OSQPVectorf_, ptr %6, i32 0, i32 1
  %8 = load i64, ptr %7, align 8
  store i64 %8, ptr %4, align 8
  %9 = load ptr, ptr %2, align 8
  %10 = getelementptr inbounds %struct.OSQPVectorf_, ptr %9, i32 0, i32 0
  %11 = load ptr, ptr %10, align 8
  store ptr %11, ptr %5, align 8
  store i64 0, ptr %3, align 8
  br label %12

12:                                               ; preds = %25, %1
  %13 = load i64, ptr %3, align 8
  %14 = load i64, ptr %4, align 8
  %15 = icmp slt i64 %13, %14
  br i1 %15, label %16, label %28

16:                                               ; preds = %12
  %17 = load ptr, ptr %5, align 8
  %18 = load i64, ptr %3, align 8
  %19 = getelementptr inbounds double, ptr %17, i64 %18
  %20 = load double, ptr %19, align 8
  %21 = call double @sqrt(double noundef %20) #6
  %22 = load ptr, ptr %5, align 8
  %23 = load i64, ptr %3, align 8
  %24 = getelementptr inbounds double, ptr %22, i64 %23
  store double %21, ptr %24, align 8
  br label %25

25:                                               ; preds = %16
  %26 = load i64, ptr %3, align 8
  %27 = add nsw i64 %26, 1
  store i64 %27, ptr %3, align 8
  br label %12, !llvm.loop !42

28:                                               ; preds = %12
  ret void
}