; Function Attrs: nofree nounwind memory(readwrite, inaccessiblemem: write) uwtable
define void @OSQPVectorf_ew_sqrt(ptr nocapture noundef readonly %0) local_unnamed_addr #13 {
  %2 = getelementptr inbounds i8, ptr %0, i64 8
  %3 = load i64, ptr %2, align 8
  %4 = load ptr, ptr %0, align 8
  %5 = icmp sgt i64 %3, 0
  br i1 %5, label %.lr.ph, label %._crit_edge

.lr.ph:                                           ; preds = %1, %.lr.ph
  %.08 = phi i64 [ %9, %.lr.ph ], [ 0, %1 ]
  %6 = getelementptr inbounds double, ptr %4, i64 %.08
  %7 = load double, ptr %6, align 8
  %8 = tail call double @sqrt(double noundef %7) #19
  store double %8, ptr %6, align 8
  %9 = add nuw nsw i64 %.08, 1
  %exitcond.not = icmp eq i64 %9, %3
  br i1 %exitcond.not, label %._crit_edge, label %.lr.ph, !llvm.loop !42

._crit_edge:                                      ; preds = %.lr.ph, %1
  ret void
}